target datalayout = "e-m:e-p270:32:32-p271:32:32-p272:64:64-i64:64-i128:128-f80:128-n8:16:32:64-S128"
target triple = "x86_64-pc-linux-gnu"

%struct.ForEachState = type { ptr, i32 }
%struct.List = type { i32, i32, i32, ptr, [0 x %union.ListCell] }
%union.ListCell = type { ptr }
%struct.nameData = type { [64 x i8] }
%struct.HeapTupleData = type { i32, %struct.ItemPointerData, i32, ptr }
%struct.ItemPointerData = type { %struct.BlockIdData, i16 }
%struct.BlockIdData = type { i16, i16 }
%struct.HeapTupleHeaderData = type { %union.anon, %struct.ItemPointerData, i16, i16, i8, [0 x i8] }
%union.anon = type { %struct.HeapTupleFields }
%struct.HeapTupleFields = type { i32, i32, %union.anon.0 }
%union.anon.0 = type { i32 }
%struct.FormData_pg_collation = type { i32, %struct.nameData, i32, i32, i8, i8, i32 }

@myTempNamespace = internal global i32 0, align 4
@activeSearchPath = internal global ptr null, align 8

; Function Attrs: inlinehint nounwind uwtable
define internal ptr @GETSTRUCT(ptr noundef %0) #7 {
  %2 = alloca ptr, align 8
  store ptr %0, ptr %2, align 8
  %3 = load ptr, ptr %2, align 8
  %4 = getelementptr inbounds nuw %struct.HeapTupleData, ptr %3, i32 0, i32 3
  %5 = load ptr, ptr %4, align 8
  %6 = load ptr, ptr %2, align 8
  %7 = getelementptr inbounds nuw %struct.HeapTupleData, ptr %6, i32 0, i32 3
  %8 = load ptr, ptr %7, align 8
  %9 = getelementptr inbounds nuw %struct.HeapTupleHeaderData, ptr %8, i32 0, i32 4
  %10 = load i8, ptr %9, align 2
  %11 = zext i8 %10 to i32
  %12 = sext i32 %11 to i64
  %13 = getelementptr inbounds i8, ptr %5, i64 %12
  ret ptr %13
}

; Function Attrs: inlinehint nounwind uwtable
define internal i64 @ObjectIdGetDatum(i32 noundef %0) #7 {
  %2 = alloca i32, align 4
  store i32 %0, ptr %2, align 4
  %3 = load i32, ptr %2, align 4
  %4 = zext i32 %3 to i64
  ret i64 %4
}

; Function Attrs: inlinehint nounwind uwtable
define internal i64 @Int32GetDatum(i32 noundef %0) #7 {
  %2 = alloca i32, align 4
  store i32 %0, ptr %2, align 4
  %3 = load i32, ptr %2, align 4
  %4 = sext i32 %3 to i64
  ret i64 %4
}

; Function Attrs: inlinehint nounwind uwtable
define internal i64 @PointerGetDatum(ptr noundef %0) #7 {
  %2 = alloca ptr, align 8
  store ptr %0, ptr %2, align 8
  %3 = load ptr, ptr %2, align 8
  %4 = ptrtoint ptr %3 to i64
  ret i64 %4
}

; Function Attrs: nounwind uwtable
define internal i32 @lookup_collation(ptr noundef %0, i32 noundef %1, i32 noundef %2) #0 {
  %4 = alloca i32, align 4
  %5 = alloca ptr, align 8
  %6 = alloca i32, align 4
  %7 = alloca i32, align 4
  %8 = alloca i32, align 4
  %9 = alloca ptr, align 8
  %10 = alloca ptr, align 8
  %11 = alloca i32, align 4
  store ptr %0, ptr %5, align 8
  store i32 %1, ptr %6, align 4
  store i32 %2, ptr %7, align 4
  call void @llvm.lifetime.start.p0(i64 4, ptr %8) #14
  call void @llvm.lifetime.start.p0(i64 8, ptr %9) #14
  call void @llvm.lifetime.start.p0(i64 8, ptr %10) #14
  %12 = load ptr, ptr %5, align 8
  %13 = call i64 @PointerGetDatum(ptr noundef %12)
  %14 = load i32, ptr %7, align 4
  %15 = call i64 @Int32GetDatum(i32 noundef %14)
  %16 = load i32, ptr %6, align 4
  %17 = call i64 @ObjectIdGetDatum(i32 noundef %16)
  %18 = call i32 @GetSysCacheOid(i32 noundef 15, i16 noundef signext 1, i64 noundef %13, i64 noundef %15, i64 noundef %17, i64 noundef 0)
  store i32 %18, ptr %8, align 4
  %19 = load i32, ptr %8, align 4
  %20 = icmp ne i32 %19, 0
  br i1 %20, label %21, label %23

21:                                               ; preds = %3
  %22 = load i32, ptr %8, align 4
  store i32 %22, ptr %4, align 4
  store i32 1, ptr %11, align 4
  br label %57

23:                                               ; preds = %3
  %24 = load ptr, ptr %5, align 8
  %25 = call i64 @PointerGetDatum(ptr noundef %24)
  %26 = call i64 @Int32GetDatum(i32 noundef -1)
  %27 = load i32, ptr %6, align 4
  %28 = call i64 @ObjectIdGetDatum(i32 noundef %27)
  %29 = call ptr @SearchSysCache3(i32 noundef 15, i64 noundef %25, i64 noundef %26, i64 noundef %28)
  store ptr %29, ptr %9, align 8
  %30 = load ptr, ptr %9, align 8
  %31 = icmp ne ptr %30, null
  br i1 %31, label %33, label %32

32:                                               ; preds = %23
  store i32 0, ptr %4, align 4
  store i32 1, ptr %11, align 4
  br label %57

33:                                               ; preds = %23
  %34 = load ptr, ptr %9, align 8
  %35 = call ptr @GETSTRUCT(ptr noundef %34)
  store ptr %35, ptr %10, align 8
  %36 = load ptr, ptr %10, align 8
  %37 = getelementptr inbounds nuw %struct.FormData_pg_collation, ptr %36, i32 0, i32 4
  %38 = load i8, ptr %37, align 4
  %39 = sext i8 %38 to i32
  %40 = icmp eq i32 %39, 105
  br i1 %40, label %41, label %50

41:                                               ; preds = %33
  %42 = load i32, ptr %7, align 4
  %43 = call zeroext i1 @is_encoding_supported_by_icu(i32 noundef %42)
  br i1 %43, label %44, label %48

44:                                               ; preds = %41
  %45 = load ptr, ptr %10, align 8
  %46 = getelementptr inbounds nuw %struct.FormData_pg_collation, ptr %45, i32 0, i32 0
  %47 = load i32, ptr %46, align 4
  store i32 %47, ptr %8, align 4
  br label %49

48:                                               ; preds = %41
  store i32 0, ptr %8, align 4
  br label %49

49:                                               ; preds = %48, %44
  br label %54

50:                                               ; preds = %33
  %51 = load ptr, ptr %10, align 8
  %52 = getelementptr inbounds nuw %struct.FormData_pg_collation, ptr %51, i32 0, i32 0
  %53 = load i32, ptr %52, align 4
  store i32 %53, ptr %8, align 4
  br label %54

54:                                               ; preds = %50, %49
  %55 = load ptr, ptr %9, align 8
  call void @ReleaseSysCache(ptr noundef %55)
  %56 = load i32, ptr %8, align 4
  store i32 %56, ptr %4, align 4
  store i32 1, ptr %11, align 4
  br label %57

57:                                               ; preds = %54, %32, %21
  call void @llvm.lifetime.end.p0(i64 8, ptr %10) #14
  call void @llvm.lifetime.end.p0(i64 8, ptr %9) #14
  call void @llvm.lifetime.end.p0(i64 4, ptr %8) #14
  %58 = load i32, ptr %4, align 4
  ret i32 %58
}

; Function Attrs: nounwind uwtable
define dso_local i32 @CollationGetCollid(ptr noundef %0) #0 {
  %2 = alloca i32, align 4
  %3 = alloca ptr, align 8
  %4 = alloca i32, align 4
  %5 = alloca ptr, align 8
  %6 = alloca %struct.ForEachState, align 8
  %7 = alloca i32, align 4
  %8 = alloca i32, align 4
  %9 = alloca i32, align 4
  store ptr %0, ptr %3, align 8
  call void @llvm.lifetime.start.p0(i64 4, ptr %4) #14
  %10 = call i32 @GetDatabaseEncoding()
  store i32 %10, ptr %4, align 4
  call void @llvm.lifetime.start.p0(i64 8, ptr %5) #14
  call void @recomputeNamespacePath()
  call void @llvm.lifetime.start.p0(i64 16, ptr %6) #14
  %11 = getelementptr inbounds nuw %struct.ForEachState, ptr %6, i32 0, i32 0
  %12 = load ptr, ptr @activeSearchPath, align 8
  store ptr %12, ptr %11, align 8
  %13 = getelementptr inbounds nuw %struct.ForEachState, ptr %6, i32 0, i32 1
  store i32 0, ptr %13, align 8
  %14 = getelementptr i8, ptr %6, i64 12
  call void @llvm.memset.p0.i64(ptr align 4 %14, i8 0, i64 4, i1 false)
  br label %15

15:                                               ; preds = %61, %1
  %16 = getelementptr inbounds nuw %struct.ForEachState, ptr %6, i32 0, i32 0
  %17 = load ptr, ptr %16, align 8
  %18 = icmp ne ptr %17, null
  br i1 %18, label %19, label %36

19:                                               ; preds = %15
  %20 = getelementptr inbounds nuw %struct.ForEachState, ptr %6, i32 0, i32 1
  %21 = load i32, ptr %20, align 8
  %22 = getelementptr inbounds nuw %struct.ForEachState, ptr %6, i32 0, i32 0
  %23 = load ptr, ptr %22, align 8
  %24 = getelementptr inbounds nuw %struct.List, ptr %23, i32 0, i32 1
  %25 = load i32, ptr %24, align 4
  %26 = icmp slt i32 %21, %25
  br i1 %26, label %27, label %36

27:                                               ; preds = %19
  %28 = getelementptr inbounds nuw %struct.ForEachState, ptr %6, i32 0, i32 0
  %29 = load ptr, ptr %28, align 8
  %30 = getelementptr inbounds nuw %struct.List, ptr %29, i32 0, i32 3
  %31 = load ptr, ptr %30, align 8
  %32 = getelementptr inbounds nuw %struct.ForEachState, ptr %6, i32 0, i32 1
  %33 = load i32, ptr %32, align 8
  %34 = sext i32 %33 to i64
  %35 = getelementptr inbounds %union.ListCell, ptr %31, i64 %34
  store ptr %35, ptr %5, align 8
  br label %37

36:                                               ; preds = %19, %15
  store ptr null, ptr %5, align 8
  br label %37

37:                                               ; preds = %36, %27
  %38 = phi i32 [ 1, %27 ], [ 0, %36 ]
  %39 = icmp ne i32 %38, 0
  br i1 %39, label %41, label %40

40:                                               ; preds = %37
  store i32 2, ptr %7, align 4
  br label %65

41:                                               ; preds = %37
  call void @llvm.lifetime.start.p0(i64 4, ptr %8) #14
  %42 = load ptr, ptr %5, align 8
  %43 = load i32, ptr %42, align 8
  store i32 %43, ptr %8, align 4
  call void @llvm.lifetime.start.p0(i64 4, ptr %9) #14
  %44 = load i32, ptr %8, align 4
  %45 = load i32, ptr @myTempNamespace, align 4
  %46 = icmp eq i32 %44, %45
  br i1 %46, label %47, label %48

47:                                               ; preds = %41
  store i32 4, ptr %7, align 4
  br label %58

48:                                               ; preds = %41
  %49 = load ptr, ptr %3, align 8
  %50 = load i32, ptr %8, align 4
  %51 = load i32, ptr %4, align 4
  %52 = call i32 @lookup_collation(ptr noundef %49, i32 noundef %50, i32 noundef %51)
  store i32 %52, ptr %9, align 4
  %53 = load i32, ptr %9, align 4
  %54 = icmp ne i32 %53, 0
  br i1 %54, label %55, label %57

55:                                               ; preds = %48
  %56 = load i32, ptr %9, align 4
  store i32 %56, ptr %2, align 4
  store i32 1, ptr %7, align 4
  br label %58

57:                                               ; preds = %48
  store i32 0, ptr %7, align 4
  br label %58

58:                                               ; preds = %57, %55, %47
  call void @llvm.lifetime.end.p0(i64 4, ptr %9) #14
  call void @llvm.lifetime.end.p0(i64 4, ptr %8) #14
  %59 = load i32, ptr %7, align 4
  switch i32 %59, label %65 [
    i32 0, label %60
    i32 4, label %61
  ]

60:                                               ; preds = %58
  br label %61

61:                                               ; preds = %60, %58
  %62 = getelementptr inbounds nuw %struct.ForEachState, ptr %6, i32 0, i32 1
  %63 = load i32, ptr %62, align 8
  %64 = add i32 %63, 1
  store i32 %64, ptr %62, align 8
  br label %15, !llvm.loop !29

65:                                               ; preds = %58, %40
  call void @llvm.lifetime.end.p0(i64 16, ptr %6) #14
  %66 = load i32, ptr %7, align 4
  switch i32 %66, label %68 [
    i32 2, label %67
  ]

67:                                               ; preds = %65
  store i32 0, ptr %2, align 4
  store i32 1, ptr %7, align 4
  br label %68

68:                                               ; preds = %67, %65
  call void @llvm.lifetime.end.p0(i64 8, ptr %5) #14
  call void @llvm.lifetime.end.p0(i64 4, ptr %4) #14
  %69 = load i32, ptr %2, align 4
  ret i32 %69
}