; Function Attrs: nounwind uwtable
define dso_local i32 @CollationGetCollid(ptr noundef %0) local_unnamed_addr #0 {
  %2 = tail call i32 @GetDatabaseEncoding() #19
  tail call fastcc void @recomputeNamespacePath()
  %3 = load ptr, ptr @activeSearchPath, align 8
  %4 = getelementptr inbounds nuw i8, ptr %3, i64 4
  %5 = ptrtoint ptr %0 to i64
  %6 = sext i32 %2 to i64
  %.not = icmp eq ptr %3, null
  br i1 %.not, label %lookup_collation.exit.thread36, label %.lr.ph

.lr.ph:                                           ; preds = %1
  %7 = getelementptr inbounds nuw i8, ptr %3, i64 16
  %8 = load i32, ptr %4, align 4
  %9 = icmp sgt i32 %8, 0
  br i1 %9, label %.lr.ph54, label %lookup_collation.exit.thread36

.lr.ph54:                                         ; preds = %.lr.ph, %select.unfold
  %indvars.iv = phi i64 [ %indvars.iv.next, %select.unfold ], [ 0, %.lr.ph ]
  %10 = load ptr, ptr %7, align 8
  %11 = getelementptr inbounds nuw %union.ListCell, ptr %10, i64 %indvars.iv
  %12 = load i32, ptr %11, align 8
  %13 = load i32, ptr @myTempNamespace, align 4
  %14 = icmp eq i32 %12, %13
  br i1 %14, label %select.unfold, label %15

15:                                               ; preds = %.lr.ph54
  %16 = zext i32 %12 to i64
  %17 = tail call i32 @GetSysCacheOid(i32 noundef 15, i16 noundef signext 1, i64 noundef %5, i64 noundef %6, i64 noundef %16, i64 noundef 0) #19
  %.not.i = icmp eq i32 %17, 0
  br i1 %.not.i, label %18, label %lookup_collation.exit.thread36

18:                                               ; preds = %15
  %19 = tail call ptr @SearchSysCache3(i32 noundef 15, i64 noundef %5, i64 noundef -1, i64 noundef %16) #19
  %.not18.i = icmp eq ptr %19, null
  br i1 %.not18.i, label %select.unfold, label %20

20:                                               ; preds = %18
  %21 = getelementptr i8, ptr %19, i64 16
  %.val.i = load ptr, ptr %21, align 8
  %22 = getelementptr inbounds nuw i8, ptr %.val.i, i64 22
  %23 = load i8, ptr %22, align 2
  %24 = zext i8 %23 to i64
  %25 = getelementptr inbounds nuw i8, ptr %.val.i, i64 %24
  %26 = getelementptr inbounds nuw i8, ptr %25, i64 76
  %27 = load i8, ptr %26, align 4
  %28 = icmp eq i8 %27, 105
  br i1 %28, label %29, label %lookup_collation.exit

29:                                               ; preds = %20
  %30 = tail call zeroext i1 @is_encoding_supported_by_icu(i32 noundef %2) #19
  br i1 %30, label %lookup_collation.exit, label %lookup_collation.exit.thread40

lookup_collation.exit.thread40:                   ; preds = %29
  tail call void @ReleaseSysCache(ptr noundef nonnull %19) #19
  br label %select.unfold

lookup_collation.exit:                            ; preds = %20, %29
  %31 = load i32, ptr %25, align 4
  tail call void @ReleaseSysCache(ptr noundef nonnull %19) #19
  %.not20 = icmp eq i32 %31, 0
  br i1 %.not20, label %select.unfold, label %lookup_collation.exit.thread36

select.unfold:                                    ; preds = %18, %lookup_collation.exit, %lookup_collation.exit.thread40, %.lr.ph54
  %indvars.iv.next = add nuw nsw i64 %indvars.iv, 1
  %32 = load i32, ptr %4, align 4
  %33 = sext i32 %32 to i64
  %34 = icmp slt i64 %indvars.iv.next, %33
  br i1 %34, label %.lr.ph54, label %lookup_collation.exit.thread36

lookup_collation.exit.thread36:                   ; preds = %lookup_collation.exit, %select.unfold, %15, %.lr.ph, %1
  %35 = phi i32 [ 0, %1 ], [ 0, %.lr.ph ], [ %17, %15 ], [ 0, %select.unfold ], [ %31, %lookup_collation.exit ]
  ret i32 %35
}